target datalayout = "e-m:e-p270:32:32-p271:32:32-p272:64:64-i64:64-i128:128-f80:128-n8:16:32:64-S128"
target triple = "x86_64-pc-linux-gnu"

@.str.229 = private unnamed_addr constant [4 x i8] c"md5\00", align 1
@.str.288 = private unnamed_addr constant [5 x i8] c"sha1\00", align 1
@.str.289 = private unnamed_addr constant [7 x i8] c"sha256\00", align 1
@.str.290 = private unnamed_addr constant [7 x i8] c"sha384\00", align 1
@.str.291 = private unnamed_addr constant [7 x i8] c"sha512\00", align 1
@.str.292 = private unnamed_addr constant [41 x i8] c"asn1_get_hash_ctx: unsupported hashtype\0A\00", align 1

; Function Attrs: nounwind uwtable
define internal ptr @get_hash_ctx(i32 noundef %0) #0 {
  %2 = alloca i32, align 4
  %3 = alloca ptr, align 8
  store i32 %0, ptr %2, align 4, !tbaa !20
  call void @llvm.lifetime.start.p0(i64 8, ptr %3) #8
  store ptr null, ptr %3, align 8, !tbaa !62
  %4 = load i32, ptr %2, align 4, !tbaa !20
  %5 = icmp eq i32 %4, 1
  br i1 %5, label %6, label %8

6:                                                ; preds = %1
  %7 = call ptr @cl_hash_init(ptr noundef @.str.288)
  store ptr %7, ptr %3, align 8, !tbaa !62
  br label %33

8:                                                ; preds = %1
  %9 = load i32, ptr %2, align 4, !tbaa !20
  %10 = icmp eq i32 %9, 2
  br i1 %10, label %11, label %13

11:                                               ; preds = %8
  %12 = call ptr @cl_hash_init(ptr noundef @.str.229)
  store ptr %12, ptr %3, align 8, !tbaa !62
  br label %32

13:                                               ; preds = %8
  %14 = load i32, ptr %2, align 4, !tbaa !20
  %15 = icmp eq i32 %14, 5
  br i1 %15, label %16, label %18

16:                                               ; preds = %13
  %17 = call ptr @cl_hash_init(ptr noundef @.str.289)
  store ptr %17, ptr %3, align 8, !tbaa !62
  br label %31

18:                                               ; preds = %13
  %19 = load i32, ptr %2, align 4, !tbaa !20
  %20 = icmp eq i32 %19, 6
  br i1 %20, label %21, label %23

21:                                               ; preds = %18
  %22 = call ptr @cl_hash_init(ptr noundef @.str.290)
  store ptr %22, ptr %3, align 8, !tbaa !62
  br label %30

23:                                               ; preds = %18
  %24 = load i32, ptr %2, align 4, !tbaa !20
  %25 = icmp eq i32 %24, 7
  br i1 %25, label %26, label %28

26:                                               ; preds = %23
  %27 = call ptr @cl_hash_init(ptr noundef @.str.291)
  store ptr %27, ptr %3, align 8, !tbaa !62
  br label %29

28:                                               ; preds = %23
  call void (ptr, ...) @cli_dbgmsg(ptr noundef @.str.292)
  br label %29

29:                                               ; preds = %28, %26
  br label %30

30:                                               ; preds = %29, %21
  br label %31

31:                                               ; preds = %30, %16
  br label %32

32:                                               ; preds = %31, %11
  br label %33

33:                                               ; preds = %32, %6
  %34 = load ptr, ptr %3, align 8, !tbaa !62
  call void @llvm.lifetime.end.p0(i64 8, ptr %3) #8
  ret ptr %34
}