; Function Attrs: nounwind uwtable
define internal fastcc ptr @get_hash_ctx(i32 noundef %0) unnamed_addr #0 {
  switch i32 %0, label %12 [
    i32 1, label %2
    i32 2, label %4
    i32 5, label %6
    i32 6, label %8
    i32 7, label %10
  ]

2:                                                ; preds = %1
  %3 = tail call ptr @cl_hash_init(ptr noundef nonnull @.str.288) #11
  br label %13

4:                                                ; preds = %1
  %5 = tail call ptr @cl_hash_init(ptr noundef nonnull @.str.229) #11
  br label %13

6:                                                ; preds = %1
  %7 = tail call ptr @cl_hash_init(ptr noundef nonnull @.str.289) #11
  br label %13

8:                                                ; preds = %1
  %9 = tail call ptr @cl_hash_init(ptr noundef nonnull @.str.290) #11
  br label %13

10:                                               ; preds = %1
  %11 = tail call ptr @cl_hash_init(ptr noundef nonnull @.str.291) #11
  br label %13

12:                                               ; preds = %1
  tail call void (ptr, ...) @cli_dbgmsg(ptr noundef nonnull @.str.292) #11
  br label %13

13:                                               ; preds = %4, %8, %12, %10, %6, %2
  %.0 = phi ptr [ %3, %2 ], [ %5, %4 ], [ %7, %6 ], [ %9, %8 ], [ %11, %10 ], [ null, %12 ]
  ret ptr %.0
}